target datalayout = "e-m:e-p270:32:32-p271:32:32-p272:64:64-i64:64-i128:128-f80:128-n8:16:32:64-S128"
target triple = "x86_64-pc-linux-gnu"

%"class.std::__cxx11::basic_string" = type { %"struct.std::__cxx11::basic_string<char>::_Alloc_hider", i64, %union.anon }
%"struct.std::__cxx11::basic_string<char>::_Alloc_hider" = type { ptr }
%union.anon = type { i64, [8 x i8] }
%"class.open_spiel::GameParameter" = type <{ i8, [3 x i8], i32, double, %"class.std::__cxx11::basic_string", i8, [7 x i8], %"class.std::map", i32, [4 x i8] }>
%"class.std::map" = type { %"class.std::_Rb_tree" }
%"class.std::_Rb_tree" = type { %"struct.std::_Rb_tree<std::__cxx11::basic_string<char>, std::pair<const std::__cxx11::basic_string<char>, open_spiel::GameParameter>, std::_Select1st<std::pair<const std::__cxx11::basic_string<char>, open_spiel::GameParameter>>, std::less<std::__cxx11::basic_string<char>>>::_Rb_tree_impl" }
%"struct.std::_Rb_tree<std::__cxx11::basic_string<char>, std::pair<const std::__cxx11::basic_string<char>, open_spiel::GameParameter>, std::_Select1st<std::pair<const std::__cxx11::basic_string<char>, open_spiel::GameParameter>>, std::less<std::__cxx11::basic_string<char>>>::_Rb_tree_impl" = type { [8 x i8], %"struct.std::_Rb_tree_header" }
%"struct.std::_Rb_tree_header" = type { %"struct.std::_Rb_tree_node_base", i64 }
%"struct.std::_Rb_tree_node_base" = type { i32, ptr, ptr, ptr }
%"class.std::__cxx11::basic_ostringstream" = type { %"class.std::basic_ostream.base", %"class.std::__cxx11::basic_stringbuf", %"class.std::basic_ios" }
%"class.std::basic_ostream.base" = type { ptr }
%"class.std::__cxx11::basic_stringbuf" = type { %"class.std::basic_streambuf", i32, %"class.std::__cxx11::basic_string" }
%"class.std::basic_streambuf" = type { ptr, ptr, ptr, ptr, ptr, ptr, ptr, %"class.std::locale" }
%"class.std::locale" = type { ptr }
%"class.std::basic_ios" = type { %"class.std::ios_base", ptr, i8, i8, ptr, ptr, ptr, ptr }
%"class.std::ios_base" = type { ptr, i64, i64, i32, i32, i32, ptr, %"struct.std::ios_base::_Words", [8 x %"struct.std::ios_base::_Words"], i32, ptr, %"class.std::locale" }
%"struct.std::ios_base::_Words" = type { ptr, i64 }

@.str.1 = private unnamed_addr constant [2 x i8] c")\00", align 1
@.str.18 = private unnamed_addr constant [2 x i8] c":\00", align 1
@.str.26 = private unnamed_addr constant [13 x i8] c" CHECK_TRUE(\00", align 1
@.str.42 = private unnamed_addr constant [141 x i8] c"generated/home/dtcxzyw/WorkSpace/Projects/compilers/llvm-opt-benchmark/bench/openspiel/open_spiel/open_spiel/../open_spiel/game_parameters.h\00", align 1
@.str.43 = private unnamed_addr constant [20 x i8] c"type_ == Type::kInt\00", align 1

; Function Attrs: mustprogress uwtable
define linkonce_odr void @_ZN10open_spiel8internal11SpielStrOutINSt7__cxx1119basic_ostringstreamIcSt11char_traitsIcESaIcEEEA2_cEEvRT_RKT0_(ptr noundef nonnull align 8 dereferenceable(112) %0, ptr noundef nonnull align 1 dereferenceable(2) %1) #4 comdat {
  %3 = alloca ptr, align 8
  %4 = alloca ptr, align 8
  store ptr %0, ptr %3, align 8
  store ptr %1, ptr %4, align 8
  %5 = load ptr, ptr %3, align 8
  %6 = load ptr, ptr %4, align 8
  %7 = getelementptr inbounds [2 x i8], ptr %6, i64 0, i64 0
  %8 = call noundef nonnull align 8 dereferenceable(8) ptr @_ZStlsISt11char_traitsIcEERSt13basic_ostreamIcT_ES5_PKc(ptr noundef nonnull align 8 dereferenceable(8) %5, ptr noundef %7)
  ret void
}

; Function Attrs: mustprogress uwtable
define linkonce_odr void @_ZN10open_spiel8internal11SpielStrOutINSt7__cxx1119basic_ostringstreamIcSt11char_traitsIcESaIcEEEA20_cJRA2_KcEEEvRT_RKT0_DpOT1_(ptr noundef nonnull align 8 dereferenceable(112) %0, ptr noundef nonnull align 1 dereferenceable(20) %1, ptr noundef nonnull align 1 dereferenceable(2) %2) #4 comdat {
  %4 = alloca ptr, align 8
  %5 = alloca ptr, align 8
  %6 = alloca ptr, align 8
  store ptr %0, ptr %4, align 8
  store ptr %1, ptr %5, align 8
  store ptr %2, ptr %6, align 8
  %7 = load ptr, ptr %4, align 8
  %8 = load ptr, ptr %5, align 8
  %9 = getelementptr inbounds [20 x i8], ptr %8, i64 0, i64 0
  %10 = call noundef nonnull align 8 dereferenceable(8) ptr @_ZStlsISt11char_traitsIcEERSt13basic_ostreamIcT_ES5_PKc(ptr noundef nonnull align 8 dereferenceable(8) %7, ptr noundef %9)
  %11 = load ptr, ptr %4, align 8
  %12 = load ptr, ptr %6, align 8
  call void @_ZN10open_spiel8internal11SpielStrOutINSt7__cxx1119basic_ostringstreamIcSt11char_traitsIcESaIcEEEA2_cEEvRT_RKT0_(ptr noundef nonnull align 8 dereferenceable(112) %11, ptr noundef nonnull align 1 dereferenceable(2) %12)
  ret void
}

; Function Attrs: mustprogress uwtable
define linkonce_odr void @_ZN10open_spiel8internal11SpielStrOutINSt7__cxx1119basic_ostringstreamIcSt11char_traitsIcESaIcEEEA13_cJRA20_KcRA2_S9_EEEvRT_RKT0_DpOT1_(ptr noundef nonnull align 8 dereferenceable(112) %0, ptr noundef nonnull align 1 dereferenceable(13) %1, ptr noundef nonnull align 1 dereferenceable(20) %2, ptr noundef nonnull align 1 dereferenceable(2) %3) #4 comdat {
  %5 = alloca ptr, align 8
  %6 = alloca ptr, align 8
  %7 = alloca ptr, align 8
  %8 = alloca ptr, align 8
  store ptr %0, ptr %5, align 8
  store ptr %1, ptr %6, align 8
  store ptr %2, ptr %7, align 8
  store ptr %3, ptr %8, align 8
  %9 = load ptr, ptr %5, align 8
  %10 = load ptr, ptr %6, align 8
  %11 = getelementptr inbounds [13 x i8], ptr %10, i64 0, i64 0
  %12 = call noundef nonnull align 8 dereferenceable(8) ptr @_ZStlsISt11char_traitsIcEERSt13basic_ostreamIcT_ES5_PKc(ptr noundef nonnull align 8 dereferenceable(8) %9, ptr noundef %11)
  %13 = load ptr, ptr %5, align 8
  %14 = load ptr, ptr %7, align 8
  %15 = load ptr, ptr %8, align 8
  call void @_ZN10open_spiel8internal11SpielStrOutINSt7__cxx1119basic_ostringstreamIcSt11char_traitsIcESaIcEEEA20_cJRA2_KcEEEvRT_RKT0_DpOT1_(ptr noundef nonnull align 8 dereferenceable(112) %13, ptr noundef nonnull align 1 dereferenceable(20) %14, ptr noundef nonnull align 1 dereferenceable(2) %15)
  ret void
}

; Function Attrs: mustprogress uwtable
define linkonce_odr void @_ZN10open_spiel8internal11SpielStrOutINSt7__cxx1119basic_ostringstreamIcSt11char_traitsIcESaIcEEEiJRA13_KcRA20_S8_RA2_S8_EEEvRT_RKT0_DpOT1_(ptr noundef nonnull align 8 dereferenceable(112) %0, ptr noundef nonnull align 4 dereferenceable(4) %1, ptr noundef nonnull align 1 dereferenceable(13) %2, ptr noundef nonnull align 1 dereferenceable(20) %3, ptr noundef nonnull align 1 dereferenceable(2) %4) #4 comdat {
  %6 = alloca ptr, align 8
  %7 = alloca ptr, align 8
  %8 = alloca ptr, align 8
  %9 = alloca ptr, align 8
  %10 = alloca ptr, align 8
  store ptr %0, ptr %6, align 8
  store ptr %1, ptr %7, align 8
  store ptr %2, ptr %8, align 8
  store ptr %3, ptr %9, align 8
  store ptr %4, ptr %10, align 8
  %11 = load ptr, ptr %6, align 8
  %12 = load ptr, ptr %7, align 8
  %13 = load i32, ptr %12, align 4
  %14 = call noundef nonnull align 8 dereferenceable(8) ptr @_ZNSolsEi(ptr noundef nonnull align 8 dereferenceable(8) %11, i32 noundef %13)
  %15 = load ptr, ptr %6, align 8
  %16 = load ptr, ptr %8, align 8
  %17 = load ptr, ptr %9, align 8
  %18 = load ptr, ptr %10, align 8
  call void @_ZN10open_spiel8internal11SpielStrOutINSt7__cxx1119basic_ostringstreamIcSt11char_traitsIcESaIcEEEA13_cJRA20_KcRA2_S9_EEEvRT_RKT0_DpOT1_(ptr noundef nonnull align 8 dereferenceable(112) %15, ptr noundef nonnull align 1 dereferenceable(13) %16, ptr noundef nonnull align 1 dereferenceable(20) %17, ptr noundef nonnull align 1 dereferenceable(2) %18)
  ret void
}

; Function Attrs: mustprogress uwtable
define linkonce_odr void @_ZN10open_spiel8internal11SpielStrOutINSt7__cxx1119basic_ostringstreamIcSt11char_traitsIcESaIcEEEA2_cJiRA13_KcRA20_S9_RA2_S9_EEEvRT_RKT0_DpOT1_(ptr noundef nonnull align 8 dereferenceable(112) %0, ptr noundef nonnull align 1 dereferenceable(2) %1, ptr noundef nonnull align 4 dereferenceable(4) %2, ptr noundef nonnull align 1 dereferenceable(13) %3, ptr noundef nonnull align 1 dereferenceable(20) %4, ptr noundef nonnull align 1 dereferenceable(2) %5) #4 comdat {
  %7 = alloca ptr, align 8
  %8 = alloca ptr, align 8
  %9 = alloca ptr, align 8
  %10 = alloca ptr, align 8
  %11 = alloca ptr, align 8
  %12 = alloca ptr, align 8
  store ptr %0, ptr %7, align 8
  store ptr %1, ptr %8, align 8
  store ptr %2, ptr %9, align 8
  store ptr %3, ptr %10, align 8
  store ptr %4, ptr %11, align 8
  store ptr %5, ptr %12, align 8
  %13 = load ptr, ptr %7, align 8
  %14 = load ptr, ptr %8, align 8
  %15 = getelementptr inbounds [2 x i8], ptr %14, i64 0, i64 0
  %16 = call noundef nonnull align 8 dereferenceable(8) ptr @_ZStlsISt11char_traitsIcEERSt13basic_ostreamIcT_ES5_PKc(ptr noundef nonnull align 8 dereferenceable(8) %13, ptr noundef %15)
  %17 = load ptr, ptr %7, align 8
  %18 = load ptr, ptr %9, align 8
  %19 = load ptr, ptr %10, align 8
  %20 = load ptr, ptr %11, align 8
  %21 = load ptr, ptr %12, align 8
  call void @_ZN10open_spiel8internal11SpielStrOutINSt7__cxx1119basic_ostringstreamIcSt11char_traitsIcESaIcEEEiJRA13_KcRA20_S8_RA2_S8_EEEvRT_RKT0_DpOT1_(ptr noundef nonnull align 8 dereferenceable(112) %17, ptr noundef nonnull align 4 dereferenceable(4) %18, ptr noundef nonnull align 1 dereferenceable(13) %19, ptr noundef nonnull align 1 dereferenceable(20) %20, ptr noundef nonnull align 1 dereferenceable(2) %21)
  ret void
}

; Function Attrs: mustprogress uwtable
define linkonce_odr void @_ZN10open_spiel8internal11SpielStrOutINSt7__cxx1119basic_ostringstreamIcSt11char_traitsIcESaIcEEEA141_cJRA2_KciRA13_S9_RA20_S9_SB_EEEvRT_RKT0_DpOT1_(ptr noundef nonnull align 8 dereferenceable(112) %0, ptr noundef nonnull align 1 dereferenceable(141) %1, ptr noundef nonnull align 1 dereferenceable(2) %2, ptr noundef nonnull align 4 dereferenceable(4) %3, ptr noundef nonnull align 1 dereferenceable(13) %4, ptr noundef nonnull align 1 dereferenceable(20) %5, ptr noundef nonnull align 1 dereferenceable(2) %6) #4 comdat {
  %8 = alloca ptr, align 8
  %9 = alloca ptr, align 8
  %10 = alloca ptr, align 8
  %11 = alloca ptr, align 8
  %12 = alloca ptr, align 8
  %13 = alloca ptr, align 8
  %14 = alloca ptr, align 8
  store ptr %0, ptr %8, align 8
  store ptr %1, ptr %9, align 8
  store ptr %2, ptr %10, align 8
  store ptr %3, ptr %11, align 8
  store ptr %4, ptr %12, align 8
  store ptr %5, ptr %13, align 8
  store ptr %6, ptr %14, align 8
  %15 = load ptr, ptr %8, align 8
  %16 = load ptr, ptr %9, align 8
  %17 = getelementptr inbounds [141 x i8], ptr %16, i64 0, i64 0
  %18 = call noundef nonnull align 8 dereferenceable(8) ptr @_ZStlsISt11char_traitsIcEERSt13basic_ostreamIcT_ES5_PKc(ptr noundef nonnull align 8 dereferenceable(8) %15, ptr noundef %17)
  %19 = load ptr, ptr %8, align 8
  %20 = load ptr, ptr %10, align 8
  %21 = load ptr, ptr %11, align 8
  %22 = load ptr, ptr %12, align 8
  %23 = load ptr, ptr %13, align 8
  %24 = load ptr, ptr %14, align 8
  call void @_ZN10open_spiel8internal11SpielStrOutINSt7__cxx1119basic_ostringstreamIcSt11char_traitsIcESaIcEEEA2_cJiRA13_KcRA20_S9_RA2_S9_EEEvRT_RKT0_DpOT1_(ptr noundef nonnull align 8 dereferenceable(112) %19, ptr noundef nonnull align 1 dereferenceable(2) %20, ptr noundef nonnull align 4 dereferenceable(4) %21, ptr noundef nonnull align 1 dereferenceable(13) %22, ptr noundef nonnull align 1 dereferenceable(20) %23, ptr noundef nonnull align 1 dereferenceable(2) %24)
  ret void
}

; Function Attrs: mustprogress uwtable
define linkonce_odr void @_ZN10open_spiel8internal11SpielStrCatIJRA141_KcRA2_S2_iRA13_S2_RA20_S2_S6_EEENSt7__cxx1112basic_stringIcSt11char_traitsIcESaIcEEEDpOT_(ptr dead_on_unwind noalias writable sret(%"class.std::__cxx11::basic_string") align 8 %0, ptr noundef nonnull align 1 dereferenceable(141) %1, ptr noundef nonnull align 1 dereferenceable(2) %2, ptr noundef nonnull align 4 dereferenceable(4) %3, ptr noundef nonnull align 1 dereferenceable(13) %4, ptr noundef nonnull align 1 dereferenceable(20) %5, ptr noundef nonnull align 1 dereferenceable(2) %6) #4 comdat personality ptr @__gxx_personality_v0 {
  %8 = alloca ptr, align 8
  %9 = alloca ptr, align 8
  %10 = alloca ptr, align 8
  %11 = alloca ptr, align 8
  %12 = alloca ptr, align 8
  %13 = alloca ptr, align 8
  %14 = alloca ptr, align 8
  %15 = alloca %"class.std::__cxx11::basic_ostringstream", align 8
  %16 = alloca ptr, align 8
  %17 = alloca i32, align 4
  store ptr %0, ptr %8, align 8
  store ptr %1, ptr %9, align 8
  store ptr %2, ptr %10, align 8
  store ptr %3, ptr %11, align 8
  store ptr %4, ptr %12, align 8
  store ptr %5, ptr %13, align 8
  store ptr %6, ptr %14, align 8
  call void @_ZNSt7__cxx1119basic_ostringstreamIcSt11char_traitsIcESaIcEEC1Ev(ptr noundef nonnull align 8 dereferenceable(112) %15)
  %18 = load ptr, ptr %9, align 8
  %19 = load ptr, ptr %10, align 8
  %20 = load ptr, ptr %11, align 8
  %21 = load ptr, ptr %12, align 8
  %22 = load ptr, ptr %13, align 8
  %23 = load ptr, ptr %14, align 8
  invoke void @_ZN10open_spiel8internal11SpielStrOutINSt7__cxx1119basic_ostringstreamIcSt11char_traitsIcESaIcEEEA141_cJRA2_KciRA13_S9_RA20_S9_SB_EEEvRT_RKT0_DpOT1_(ptr noundef nonnull align 8 dereferenceable(112) %15, ptr noundef nonnull align 1 dereferenceable(141) %18, ptr noundef nonnull align 1 dereferenceable(2) %19, ptr noundef nonnull align 4 dereferenceable(4) %20, ptr noundef nonnull align 1 dereferenceable(13) %21, ptr noundef nonnull align 1 dereferenceable(20) %22, ptr noundef nonnull align 1 dereferenceable(2) %23)
          to label %24 unwind label %26

24:                                               ; preds = %7
  invoke void @_ZNKSt7__cxx1119basic_ostringstreamIcSt11char_traitsIcESaIcEE3strEv(ptr dead_on_unwind writable sret(%"class.std::__cxx11::basic_string") align 8 %0, ptr noundef nonnull align 8 dereferenceable(112) %15)
          to label %25 unwind label %26

25:                                               ; preds = %24
  call void @_ZNSt7__cxx1119basic_ostringstreamIcSt11char_traitsIcESaIcEED1Ev(ptr noundef nonnull align 8 dereferenceable(112) %15) #3
  ret void

26:                                               ; preds = %24, %7
  %27 = landingpad { ptr, i32 }
          cleanup
  %28 = extractvalue { ptr, i32 } %27, 0
  store ptr %28, ptr %16, align 8
  %29 = extractvalue { ptr, i32 } %27, 1
  store i32 %29, ptr %17, align 4
  call void @_ZNSt7__cxx1119basic_ostringstreamIcSt11char_traitsIcESaIcEED1Ev(ptr noundef nonnull align 8 dereferenceable(112) %15) #3
  br label %30

30:                                               ; preds = %26
  %31 = load ptr, ptr %16, align 8
  %32 = load i32, ptr %17, align 4
  %33 = insertvalue { ptr, i32 } poison, ptr %31, 0
  %34 = insertvalue { ptr, i32 } %33, i32 %32, 1
  resume { ptr, i32 } %34
}

; Function Attrs: mustprogress uwtable
define linkonce_odr noundef i32 @_ZNK10open_spiel13GameParameter9int_valueEv(ptr noundef nonnull align 8 dereferenceable(108) %0) #4 comdat align 2 personality ptr @__gxx_personality_v0 {
  %2 = alloca ptr, align 8
  %3 = alloca %"class.std::__cxx11::basic_string", align 8
  %4 = alloca i32, align 4
  %5 = alloca ptr, align 8
  %6 = alloca i32, align 4
  store ptr %0, ptr %2, align 8
  %7 = load ptr, ptr %2, align 8
  br label %8

8:                                                ; preds = %1
  %9 = getelementptr inbounds nuw %"class.open_spiel::GameParameter", ptr %7, i32 0, i32 8
  %10 = load i32, ptr %9, align 8
  %11 = icmp eq i32 %10, 0
  %12 = xor i1 %11, true
  br i1 %12, label %13, label %19

13:                                               ; preds = %8
  store i32 112, ptr %4, align 4
  call void @_ZN10open_spiel8internal11SpielStrCatIJRA141_KcRA2_S2_iRA13_S2_RA20_S2_S6_EEENSt7__cxx1112basic_stringIcSt11char_traitsIcESaIcEEEDpOT_(ptr dead_on_unwind writable sret(%"class.std::__cxx11::basic_string") align 8 %3, ptr noundef nonnull align 1 dereferenceable(141) @.str.42, ptr noundef nonnull align 1 dereferenceable(2) @.str.18, ptr noundef nonnull align 4 dereferenceable(4) %4, ptr noundef nonnull align 1 dereferenceable(13) @.str.26, ptr noundef nonnull align 1 dereferenceable(20) @.str.43, ptr noundef nonnull align 1 dereferenceable(2) @.str.1)
  invoke void @_ZN10open_spiel15SpielFatalErrorERKNSt7__cxx1112basic_stringIcSt11char_traitsIcESaIcEEE(ptr noundef nonnull align 8 dereferenceable(32) %3) #16
          to label %14 unwind label %15

14:                                               ; preds = %13
  unreachable

15:                                               ; preds = %13
  %16 = landingpad { ptr, i32 }
          cleanup
  %17 = extractvalue { ptr, i32 } %16, 0
  store ptr %17, ptr %5, align 8
  %18 = extractvalue { ptr, i32 } %16, 1
  store i32 %18, ptr %6, align 4
  call void @_ZNSt7__cxx1112basic_stringIcSt11char_traitsIcESaIcEED1Ev(ptr noundef nonnull align 8 dereferenceable(32) %3) #3
  br label %22

19:                                               ; preds = %8
  %20 = getelementptr inbounds nuw %"class.open_spiel::GameParameter", ptr %7, i32 0, i32 2
  %21 = load i32, ptr %20, align 4
  ret i32 %21

22:                                               ; preds = %15
  %23 = load ptr, ptr %5, align 8
  %24 = load i32, ptr %6, align 4
  %25 = insertvalue { ptr, i32 } poison, ptr %23, 0
  %26 = insertvalue { ptr, i32 } %25, i32 %24, 1
  resume { ptr, i32 } %26
}

; Function Attrs: mustprogress nounwind uwtable
define linkonce_odr noundef zeroext i1 @_ZNK10open_spiel13GameParameter13has_int_valueEv(ptr noundef nonnull align 8 dereferenceable(108) %0) #5 comdat align 2 {
  %2 = alloca ptr, align 8
  store ptr %0, ptr %2, align 8
  %3 = load ptr, ptr %2, align 8
  %4 = getelementptr inbounds nuw %"class.open_spiel::GameParameter", ptr %3, i32 0, i32 8
  %5 = load i32, ptr %4, align 8
  %6 = icmp eq i32 %5, 0
  ret i1 %6
}

; Function Attrs: mustprogress uwtable
define noundef i32 @_ZNK10open_spiel13GameParameter18value_with_defaultIiEET_S2_(ptr noundef nonnull align 8 dereferenceable(108) %0, i32 noundef %1) #4 align 2 {
  %3 = alloca i32, align 4
  %4 = alloca ptr, align 8
  %5 = alloca i32, align 4
  store ptr %0, ptr %4, align 8
  store i32 %1, ptr %5, align 4
  %6 = load ptr, ptr %4, align 8
  %7 = call noundef zeroext i1 @_ZNK10open_spiel13GameParameter13has_int_valueEv(ptr noundef nonnull align 8 dereferenceable(108) %6)
  br i1 %7, label %8, label %10

8:                                                ; preds = %2
  %9 = call noundef i32 @_ZNK10open_spiel13GameParameter9int_valueEv(ptr noundef nonnull align 8 dereferenceable(108) %6)
  store i32 %9, ptr %3, align 4
  br label %12

10:                                               ; preds = %2
  %11 = load i32, ptr %5, align 4
  store i32 %11, ptr %3, align 4
  br label %12

12:                                               ; preds = %10, %8
  %13 = load i32, ptr %3, align 4
  ret i32 %13
}